; Function Attrs: mustprogress uwtable
define void @_ZN5folly10SSLContext22addClientHelloCallbackERKSt8functionIFvP6ssl_stEE(ptr noundef nonnull align 8 dereferenceable(304) %0, ptr noundef nonnull align 8 dereferenceable(32) %1) unnamed_addr #2 align 2 personality ptr @__gxx_personality_v0 {
  %3 = getelementptr inbounds nuw i8, ptr %0, i64 120
  %4 = load ptr, ptr %3, align 8, !tbaa !157
  %5 = getelementptr inbounds nuw i8, ptr %0, i64 128
  %6 = load ptr, ptr %5, align 8, !tbaa !158
  %.not.i = icmp eq ptr %4, %6
  br i1 %.not.i, label %28, label %7

7:                                                ; preds = %2
  %8 = getelementptr inbounds nuw i8, ptr %4, i64 16
  %9 = getelementptr inbounds nuw i8, ptr %4, i64 24
  %10 = getelementptr inbounds nuw i8, ptr %1, i64 16
  tail call void @llvm.memset.p0.i64(ptr noundef nonnull align 8 dereferenceable(32) %4, i8 0, i64 32, i1 false)
  %11 = load ptr, ptr %10, align 8, !tbaa !153
  %.not.i.i.not.i.i.i.i = icmp eq ptr %11, null
  br i1 %.not.i.i.not.i.i.i.i, label %_ZNSt16allocator_traitsISaISt8functionIFvP6ssl_stEEEE9constructIS4_JRKS4_EEEvRS5_PT_DpOT0_.exit.i, label %12

12:                                               ; preds = %7
  %13 = invoke noundef zeroext i1 %11(ptr noundef nonnull align 8 dereferenceable(32) %4, ptr noundef nonnull align 8 dereferenceable(32) %1, i32 noundef 2)
          to label %14 unwind label %18

14:                                               ; preds = %12
  %15 = getelementptr inbounds nuw i8, ptr %1, i64 24
  %16 = load ptr, ptr %15, align 8, !tbaa !159
  store ptr %16, ptr %9, align 8, !tbaa !159
  %17 = load ptr, ptr %10, align 8, !tbaa !153
  store ptr %17, ptr %8, align 8, !tbaa !153
  br label %_ZNSt16allocator_traitsISaISt8functionIFvP6ssl_stEEEE9constructIS4_JRKS4_EEEvRS5_PT_DpOT0_.exit.i

18:                                               ; preds = %12
  %19 = landingpad { ptr, i32 }
          cleanup
  %20 = load ptr, ptr %8, align 8, !tbaa !153
  %.not.i.i.i.i.i = icmp eq ptr %20, null
  br i1 %.not.i.i.i.i.i, label %_ZNSt14_Function_baseD2Ev.exit.i.i.i.i, label %21

21:                                               ; preds = %18
  %22 = invoke noundef zeroext i1 %20(ptr noundef nonnull align 8 dereferenceable(32) %4, ptr noundef nonnull align 8 dereferenceable(32) %4, i32 noundef 3)
          to label %_ZNSt14_Function_baseD2Ev.exit.i.i.i.i unwind label %23

23:                                               ; preds = %21
  %24 = landingpad { ptr, i32 }
          catch ptr null
  %25 = extractvalue { ptr, i32 } %24, 0
  tail call void @__clang_call_terminate(ptr %25) #33
  unreachable

_ZNSt14_Function_baseD2Ev.exit.i.i.i.i:           ; preds = %21, %18
  resume { ptr, i32 } %19

_ZNSt16allocator_traitsISaISt8functionIFvP6ssl_stEEEE9constructIS4_JRKS4_EEEvRS5_PT_DpOT0_.exit.i: ; preds = %14, %7
  %26 = load ptr, ptr %3, align 8, !tbaa !157
  %27 = getelementptr inbounds nuw i8, ptr %26, i64 32
  store ptr %27, ptr %3, align 8, !tbaa !157
  br label %_ZNSt6vectorISt8functionIFvP6ssl_stEESaIS4_EE9push_backERKS4_.exit

28:                                               ; preds = %2
  %29 = getelementptr inbounds nuw i8, ptr %0, i64 112
  tail call void @_ZNSt6vectorISt8functionIFvP6ssl_stEESaIS4_EE17_M_realloc_insertIJRKS4_EEEvN9__gnu_cxx17__normal_iteratorIPS4_S6_EEDpOT_(ptr noundef nonnull align 8 dereferenceable(24) %29, ptr %4, ptr noundef nonnull align 8 dereferenceable(32) %1)
  br label %_ZNSt6vectorISt8functionIFvP6ssl_stEESaIS4_EE9push_backERKS4_.exit

_ZNSt6vectorISt8functionIFvP6ssl_stEESaIS4_EE9push_backERKS4_.exit: ; preds = %_ZNSt16allocator_traitsISaISt8functionIFvP6ssl_stEEEE9constructIS4_JRKS4_EEEvRS5_PT_DpOT0_.exit.i, %28
  ret void
}